target datalayout = "e-m:e-p270:32:32-p271:32:32-p272:64:64-i64:64-i128:128-f80:128-n8:16:32:64-S128"
target triple = "x86_64-pc-linux-gnu"

; Function Attrs: null_pointer_is_valid sspstrong uwtable
define internal i32 @get_ncp_pdu_len(ptr noundef %0, ptr noundef %1, i32 noundef %2, ptr noundef %3) #0 {
  %5 = alloca i32, align 4
  %6 = alloca ptr, align 8
  %7 = alloca ptr, align 8
  %8 = alloca i32, align 4
  %9 = alloca ptr, align 8
  %10 = alloca i32, align 4
  %11 = alloca i32, align 4
  store ptr %0, ptr %6, align 8
  store ptr %1, ptr %7, align 8
  store i32 %2, ptr %8, align 4
  store ptr %3, ptr %9, align 8
  call void @llvm.lifetime.start.p0(i64 4, ptr %10) #8
  %12 = load ptr, ptr %7, align 8
  %13 = load i32, ptr %8, align 4
  %14 = call i32 @tvb_get_ntohl(ptr noundef %12, i32 noundef %13)
  store i32 %14, ptr %10, align 4
  %15 = load i32, ptr %10, align 4
  %16 = icmp ne i32 %15, 1148019796
  br i1 %16, label %17, label %24

17:                                               ; preds = %4
  %18 = load i32, ptr %10, align 4
  %19 = icmp ne i32 %18, 1951294288
  br i1 %19, label %20, label %24

20:                                               ; preds = %17
  %21 = load ptr, ptr %7, align 8
  %22 = load i32, ptr %8, align 4
  %23 = call i32 @tvb_captured_length_remaining(ptr noundef %21, i32 noundef %22)
  store i32 %23, ptr %5, align 4
  store i32 1, ptr %11, align 4
  br label %30

24:                                               ; preds = %17, %4
  %25 = load ptr, ptr %7, align 8
  %26 = load i32, ptr %8, align 4
  %27 = add i32 %26, 4
  %28 = call i32 @tvb_get_ntohl(ptr noundef %25, i32 noundef %27)
  %29 = and i32 %28, 2147483647
  store i32 %29, ptr %5, align 4
  store i32 1, ptr %11, align 4
  br label %30

30:                                               ; preds = %24, %20
  call void @llvm.lifetime.end.p0(i64 4, ptr %10) #8
  %31 = load i32, ptr %5, align 4
  ret i32 %31
}