; Function Attrs: null_pointer_is_valid sspstrong uwtable
define internal i32 @get_ncp_pdu_len(ptr readnone captures(none) %0, ptr noundef %1, i32 noundef %2, ptr readnone captures(none) %3) #0 {
  %5 = tail call i32 @tvb_get_ntohl(ptr noundef %1, i32 noundef %2)
  switch i32 %5, label %6 [
    i32 1951294288, label %8
    i32 1148019796, label %8
  ]

6:                                                ; preds = %4
  %7 = tail call i32 @tvb_captured_length_remaining(ptr noundef %1, i32 noundef %2)
  br label %12

8:                                                ; preds = %4, %4
  %9 = add i32 %2, 4
  %10 = tail call i32 @tvb_get_ntohl(ptr noundef %1, i32 noundef %9)
  %11 = and i32 %10, 2147483647
  br label %12

12:                                               ; preds = %8, %6
  %.0 = phi i32 [ %7, %6 ], [ %11, %8 ]
  ret i32 %.0
}